target datalayout = "e-m:e-p270:32:32-p271:32:32-p272:64:64-i64:64-i128:128-f80:128-n8:16:32:64-S128"
target triple = "x86_64-pc-linux-gnu"

%"class.gmx::OutputRequirementOptionDirector" = type { i32, i32, i32, i8, float, float, i8, i8, %"class.std::vector", i8, i32 }
%"class.std::vector" = type { %"struct.std::_Vector_base" }
%"struct.std::_Vector_base" = type { %"struct.std::_Vector_base<float, std::allocator<float>>::_Vector_impl" }
%"struct.std::_Vector_base<float, std::allocator<float>>::_Vector_impl" = type { %"struct.std::_Vector_base<float, std::allocator<float>>::_Vector_impl_data" }
%"struct.std::_Vector_base<float, std::allocator<float>>::_Vector_impl_data" = type { ptr, ptr, ptr }
%"struct.gmx::OutputRequirements" = type { i32, i32, i32, i32, i32, float, float, [3 x [3 x float]], i32, i32 }

; Function Attrs: mustprogress nounwind uwtable
define linkonce_odr noundef nonnull align 4 dereferenceable(4) ptr @_ZNKSt6vectorIfSaIfEEixEm(ptr noundef nonnull align 8 dereferenceable(24) %0, i64 noundef %1) #1 comdat align 2 {
  %3 = alloca ptr, align 8
  %4 = alloca i64, align 8
  store ptr %0, ptr %3, align 8
  store i64 %1, ptr %4, align 8
  %5 = load ptr, ptr %3, align 8
  %6 = getelementptr inbounds %"struct.std::_Vector_base", ptr %5, i32 0, i32 0
  %7 = getelementptr inbounds %"struct.std::_Vector_base<float, std::allocator<float>>::_Vector_impl_data", ptr %6, i32 0, i32 0
  %8 = load ptr, ptr %7, align 8
  %9 = load i64, ptr %4, align 8
  %10 = getelementptr inbounds float, ptr %8, i64 %9
  ret ptr %10
}

; Function Attrs: mustprogress nounwind uwtable
define internal void @_ZL9clear_matPA3_f(ptr noundef %0) #1 {
  %2 = alloca ptr, align 8
  %3 = alloca float, align 4
  store ptr %0, ptr %2, align 8
  store float 0.000000e+00, ptr %3, align 4
  %4 = load ptr, ptr %2, align 8
  %5 = getelementptr inbounds [3 x float], ptr %4, i64 0
  %6 = getelementptr inbounds [3 x float], ptr %5, i64 0, i64 2
  store float 0.000000e+00, ptr %6, align 4
  %7 = load ptr, ptr %2, align 8
  %8 = getelementptr inbounds [3 x float], ptr %7, i64 0
  %9 = getelementptr inbounds [3 x float], ptr %8, i64 0, i64 1
  store float 0.000000e+00, ptr %9, align 4
  %10 = load ptr, ptr %2, align 8
  %11 = getelementptr inbounds [3 x float], ptr %10, i64 0
  %12 = getelementptr inbounds [3 x float], ptr %11, i64 0, i64 0
  store float 0.000000e+00, ptr %12, align 4
  %13 = load ptr, ptr %2, align 8
  %14 = getelementptr inbounds [3 x float], ptr %13, i64 1
  %15 = getelementptr inbounds [3 x float], ptr %14, i64 0, i64 2
  store float 0.000000e+00, ptr %15, align 4
  %16 = load ptr, ptr %2, align 8
  %17 = getelementptr inbounds [3 x float], ptr %16, i64 1
  %18 = getelementptr inbounds [3 x float], ptr %17, i64 0, i64 1
  store float 0.000000e+00, ptr %18, align 4
  %19 = load ptr, ptr %2, align 8
  %20 = getelementptr inbounds [3 x float], ptr %19, i64 1
  %21 = getelementptr inbounds [3 x float], ptr %20, i64 0, i64 0
  store float 0.000000e+00, ptr %21, align 4
  %22 = load ptr, ptr %2, align 8
  %23 = getelementptr inbounds [3 x float], ptr %22, i64 2
  %24 = getelementptr inbounds [3 x float], ptr %23, i64 0, i64 2
  store float 0.000000e+00, ptr %24, align 4
  %25 = load ptr, ptr %2, align 8
  %26 = getelementptr inbounds [3 x float], ptr %25, i64 2
  %27 = getelementptr inbounds [3 x float], ptr %26, i64 0, i64 1
  store float 0.000000e+00, ptr %27, align 4
  %28 = load ptr, ptr %2, align 8
  %29 = getelementptr inbounds [3 x float], ptr %28, i64 2
  %30 = getelementptr inbounds [3 x float], ptr %29, i64 0, i64 0
  store float 0.000000e+00, ptr %30, align 4
  ret void
}

; Function Attrs: mustprogress nounwind uwtable
define linkonce_odr void @_ZN3gmx18OutputRequirementsC2Ev(ptr noundef nonnull align 4 dereferenceable(72) %0) unnamed_addr #1 comdat align 2 {
  %2 = alloca ptr, align 8
  store ptr %0, ptr %2, align 8
  %3 = load ptr, ptr %2, align 8
  %4 = getelementptr inbounds %"struct.gmx::OutputRequirements", ptr %3, i32 0, i32 0
  store i32 0, ptr %4, align 4
  %5 = getelementptr inbounds %"struct.gmx::OutputRequirements", ptr %3, i32 0, i32 1
  store i32 0, ptr %5, align 4
  %6 = getelementptr inbounds %"struct.gmx::OutputRequirements", ptr %3, i32 0, i32 2
  store i32 0, ptr %6, align 4
  %7 = getelementptr inbounds %"struct.gmx::OutputRequirements", ptr %3, i32 0, i32 3
  store i32 3, ptr %7, align 4
  %8 = getelementptr inbounds %"struct.gmx::OutputRequirements", ptr %3, i32 0, i32 4
  store i32 0, ptr %8, align 4
  %9 = getelementptr inbounds %"struct.gmx::OutputRequirements", ptr %3, i32 0, i32 5
  store float 0.000000e+00, ptr %9, align 4
  %10 = getelementptr inbounds %"struct.gmx::OutputRequirements", ptr %3, i32 0, i32 6
  store float 0.000000e+00, ptr %10, align 4
  %11 = getelementptr inbounds %"struct.gmx::OutputRequirements", ptr %3, i32 0, i32 7
  %12 = getelementptr inbounds [3 x [3 x float]], ptr %11, i64 0, i64 0
  %13 = getelementptr inbounds [3 x float], ptr %12, i64 0, i64 0
  store float 0.000000e+00, ptr %13, align 4
  %14 = getelementptr inbounds float, ptr %13, i64 1
  %15 = getelementptr inbounds float, ptr %13, i64 3
  br label %16

16:                                               ; preds = %16, %1
  %17 = phi ptr [ %14, %1 ], [ %18, %16 ]
  store float 0.000000e+00, ptr %17, align 4
  %18 = getelementptr inbounds float, ptr %17, i64 1
  %19 = icmp eq ptr %18, %15
  br i1 %19, label %20, label %16

20:                                               ; preds = %16
  %21 = getelementptr inbounds [3 x float], ptr %12, i64 1
  %22 = getelementptr inbounds [3 x float], ptr %12, i64 3
  br label %23

23:                                               ; preds = %23, %20
  %24 = phi ptr [ %21, %20 ], [ %25, %23 ]
  call void @llvm.memset.p0.i64(ptr align 4 %24, i8 0, i64 12, i1 false)
  %25 = getelementptr inbounds [3 x float], ptr %24, i64 1
  %26 = icmp eq ptr %25, %22
  br i1 %26, label %27, label %23

27:                                               ; preds = %23
  %28 = getelementptr inbounds %"struct.gmx::OutputRequirements", ptr %3, i32 0, i32 8
  store i32 0, ptr %28, align 4
  %29 = getelementptr inbounds %"struct.gmx::OutputRequirements", ptr %3, i32 0, i32 9
  store i32 0, ptr %29, align 4
  ret void
}

; Function Attrs: mustprogress uwtable
define void @_ZNK3gmx31OutputRequirementOptionDirector7processEv(ptr dead_on_unwind noalias writable sret(%"struct.gmx::OutputRequirements") align 4 %0, ptr noundef nonnull align 8 dereferenceable(64) %1) #0 align 2 {
  %3 = alloca ptr, align 8
  %4 = alloca i32, align 4
  store ptr %1, ptr %3, align 8
  %5 = load ptr, ptr %3, align 8
  call void @_ZN3gmx18OutputRequirementsC2Ev(ptr noundef nonnull align 4 dereferenceable(72) %0) #11
  %6 = getelementptr inbounds %"class.gmx::OutputRequirementOptionDirector", ptr %5, i32 0, i32 9
  %7 = load i8, ptr %6, align 8
  %8 = trunc i8 %7 to i1
  br i1 %8, label %9, label %33

9:                                                ; preds = %2
  %10 = getelementptr inbounds %"struct.gmx::OutputRequirements", ptr %0, i32 0, i32 8
  store i32 1, ptr %10, align 4
  %11 = getelementptr inbounds %"struct.gmx::OutputRequirements", ptr %0, i32 0, i32 7
  %12 = getelementptr inbounds [3 x [3 x float]], ptr %11, i64 0, i64 0
  call void @_ZL9clear_matPA3_f(ptr noundef %12)
  store i32 0, ptr %4, align 4
  br label %13

13:                                               ; preds = %29, %9
  %14 = load i32, ptr %4, align 4
  %15 = icmp slt i32 %14, 3
  br i1 %15, label %16, label %32

16:                                               ; preds = %13
  %17 = getelementptr inbounds %"class.gmx::OutputRequirementOptionDirector", ptr %5, i32 0, i32 8
  %18 = load i32, ptr %4, align 4
  %19 = sext i32 %18 to i64
  %20 = call noundef nonnull align 4 dereferenceable(4) ptr @_ZNKSt6vectorIfSaIfEEixEm(ptr noundef nonnull align 8 dereferenceable(24) %17, i64 noundef %19) #11
  %21 = load float, ptr %20, align 4
  %22 = getelementptr inbounds %"struct.gmx::OutputRequirements", ptr %0, i32 0, i32 7
  %23 = load i32, ptr %4, align 4
  %24 = sext i32 %23 to i64
  %25 = getelementptr inbounds [3 x [3 x float]], ptr %22, i64 0, i64 %24
  %26 = load i32, ptr %4, align 4
  %27 = sext i32 %26 to i64
  %28 = getelementptr inbounds [3 x float], ptr %25, i64 0, i64 %27
  store float %21, ptr %28, align 4
  br label %29

29:                                               ; preds = %16
  %30 = load i32, ptr %4, align 4
  %31 = add nsw i32 %30, 1
  store i32 %31, ptr %4, align 4
  br label %13, !llvm.loop !5

32:                                               ; preds = %13
  br label %33

33:                                               ; preds = %32, %2
  %34 = getelementptr inbounds %"class.gmx::OutputRequirementOptionDirector", ptr %5, i32 0, i32 3
  %35 = load i8, ptr %34, align 4
  %36 = trunc i8 %35 to i1
  br i1 %36, label %37, label %42

37:                                               ; preds = %33
  %38 = getelementptr inbounds %"struct.gmx::OutputRequirements", ptr %0, i32 0, i32 2
  store i32 1, ptr %38, align 4
  %39 = getelementptr inbounds %"class.gmx::OutputRequirementOptionDirector", ptr %5, i32 0, i32 2
  %40 = load i32, ptr %39, align 8
  %41 = getelementptr inbounds %"struct.gmx::OutputRequirements", ptr %0, i32 0, i32 3
  store i32 %40, ptr %41, align 4
  br label %42

42:                                               ; preds = %37, %33
  %43 = getelementptr inbounds %"class.gmx::OutputRequirementOptionDirector", ptr %5, i32 0, i32 7
  %44 = load i8, ptr %43, align 1
  %45 = trunc i8 %44 to i1
  br i1 %45, label %50, label %46

46:                                               ; preds = %42
  %47 = getelementptr inbounds %"class.gmx::OutputRequirementOptionDirector", ptr %5, i32 0, i32 6
  %48 = load i8, ptr %47, align 8
  %49 = trunc i8 %48 to i1
  br i1 %49, label %50, label %76

50:                                               ; preds = %46, %42
  %51 = getelementptr inbounds %"class.gmx::OutputRequirementOptionDirector", ptr %5, i32 0, i32 4
  %52 = load float, ptr %51, align 8
  %53 = getelementptr inbounds %"struct.gmx::OutputRequirements", ptr %0, i32 0, i32 5
  store float %52, ptr %53, align 4
  %54 = getelementptr inbounds %"class.gmx::OutputRequirementOptionDirector", ptr %5, i32 0, i32 5
  %55 = load float, ptr %54, align 4
  %56 = getelementptr inbounds %"struct.gmx::OutputRequirements", ptr %0, i32 0, i32 6
  store float %55, ptr %56, align 4
  %57 = getelementptr inbounds %"class.gmx::OutputRequirementOptionDirector", ptr %5, i32 0, i32 7
  %58 = load i8, ptr %57, align 1
  %59 = trunc i8 %58 to i1
  br i1 %59, label %60, label %66

60:                                               ; preds = %50
  %61 = getelementptr inbounds %"class.gmx::OutputRequirementOptionDirector", ptr %5, i32 0, i32 6
  %62 = load i8, ptr %61, align 8
  %63 = trunc i8 %62 to i1
  br i1 %63, label %64, label %66

64:                                               ; preds = %60
  %65 = getelementptr inbounds %"struct.gmx::OutputRequirements", ptr %0, i32 0, i32 4
  store i32 3, ptr %65, align 4
  br label %75

66:                                               ; preds = %60, %50
  %67 = getelementptr inbounds %"class.gmx::OutputRequirementOptionDirector", ptr %5, i32 0, i32 7
  %68 = load i8, ptr %67, align 1
  %69 = trunc i8 %68 to i1
  br i1 %69, label %70, label %72

70:                                               ; preds = %66
  %71 = getelementptr inbounds %"struct.gmx::OutputRequirements", ptr %0, i32 0, i32 4
  store i32 2, ptr %71, align 4
  br label %74

72:                                               ; preds = %66
  %73 = getelementptr inbounds %"struct.gmx::OutputRequirements", ptr %0, i32 0, i32 4
  store i32 1, ptr %73, align 4
  br label %74

74:                                               ; preds = %72, %70
  br label %75

75:                                               ; preds = %74, %64
  br label %76

76:                                               ; preds = %75, %46
  %77 = getelementptr inbounds %"class.gmx::OutputRequirementOptionDirector", ptr %5, i32 0, i32 10
  %78 = load i32, ptr %77, align 4
  %79 = getelementptr inbounds %"struct.gmx::OutputRequirements", ptr %0, i32 0, i32 9
  store i32 %78, ptr %79, align 4
  %80 = getelementptr inbounds %"class.gmx::OutputRequirementOptionDirector", ptr %5, i32 0, i32 0
  %81 = load i32, ptr %80, align 8
  %82 = getelementptr inbounds %"struct.gmx::OutputRequirements", ptr %0, i32 0, i32 0
  store i32 %81, ptr %82, align 4
  %83 = getelementptr inbounds %"class.gmx::OutputRequirementOptionDirector", ptr %5, i32 0, i32 1
  %84 = load i32, ptr %83, align 4
  %85 = getelementptr inbounds %"struct.gmx::OutputRequirements", ptr %0, i32 0, i32 1
  store i32 %84, ptr %85, align 4
  ret void
}