; Function Attrs: mustprogress nofree norecurse nosync nounwind memory(read, argmem: readwrite, inaccessiblemem: none) uwtable
define void @_ZNK3gmx31OutputRequirementOptionDirector7processEv(ptr dead_on_unwind noalias nocapture writable writeonly sret(%"struct.gmx::OutputRequirements") align 4 %0, ptr nocapture noundef nonnull readonly align 8 dereferenceable(64) %1) local_unnamed_addr #7 align 2 {
  %3 = getelementptr inbounds i8, ptr %0, i64 8
  %4 = getelementptr inbounds i8, ptr %0, i64 12
  store <4 x i32> <i32 0, i32 0, i32 0, i32 3>, ptr %0, align 4
  %5 = getelementptr inbounds i8, ptr %0, i64 16
  tail call void @llvm.memset.p0.i64(ptr noundef nonnull align 4 dereferenceable(56) %5, i8 0, i64 56, i1 false)
  %6 = getelementptr inbounds i8, ptr %1, i64 56
  %7 = load i8, ptr %6, align 8
  %8 = trunc i8 %7 to i1
  br i1 %8, label %9, label %.loopexit

9:                                                ; preds = %2
  %10 = getelementptr inbounds i8, ptr %0, i64 64
  store i32 1, ptr %10, align 4
  %11 = getelementptr inbounds i8, ptr %0, i64 28
  tail call void @llvm.memset.p0.i64(ptr noundef nonnull align 4 dereferenceable(36) %11, i8 0, i64 36, i1 false)
  %12 = getelementptr inbounds i8, ptr %1, i64 32
  %13 = load ptr, ptr %12, align 8
  br label %14

14:                                               ; preds = %9, %14
  %indvars.iv = phi i64 [ 0, %9 ], [ %indvars.iv.next, %14 ]
  %15 = getelementptr inbounds float, ptr %13, i64 %indvars.iv
  %16 = load float, ptr %15, align 4
  %17 = getelementptr inbounds [3 x [3 x float]], ptr %11, i64 0, i64 %indvars.iv, i64 %indvars.iv
  store float %16, ptr %17, align 4
  %indvars.iv.next = add nuw nsw i64 %indvars.iv, 1
  %exitcond.not = icmp eq i64 %indvars.iv.next, 3
  br i1 %exitcond.not, label %.loopexit, label %14, !llvm.loop !11

.loopexit:                                        ; preds = %14, %2
  %18 = getelementptr inbounds i8, ptr %1, i64 12
  %19 = load i8, ptr %18, align 4
  %20 = trunc i8 %19 to i1
  br i1 %20, label %21, label %24

21:                                               ; preds = %.loopexit
  store i32 1, ptr %3, align 4
  %22 = getelementptr inbounds i8, ptr %1, i64 8
  %23 = load i32, ptr %22, align 8
  store i32 %23, ptr %4, align 4
  br label %24

24:                                               ; preds = %21, %.loopexit
  %25 = getelementptr inbounds i8, ptr %1, i64 25
  %26 = load i8, ptr %25, align 1
  %27 = trunc i8 %26 to i1
  br i1 %27, label %32, label %28

28:                                               ; preds = %24
  %29 = getelementptr inbounds i8, ptr %1, i64 24
  %30 = load i8, ptr %29, align 8
  %31 = trunc i8 %30 to i1
  br i1 %31, label %39, label %43

32:                                               ; preds = %24
  %33 = getelementptr inbounds i8, ptr %1, i64 16
  %34 = getelementptr inbounds i8, ptr %0, i64 20
  %35 = load <2 x float>, ptr %33, align 8
  store <2 x float> %35, ptr %34, align 4
  %36 = getelementptr inbounds i8, ptr %1, i64 24
  %37 = load i8, ptr %36, align 8
  %38 = trunc i8 %37 to i1
  %. = select i1 %38, i32 3, i32 2
  br label %.sink.split

39:                                               ; preds = %28
  %40 = getelementptr inbounds i8, ptr %1, i64 16
  %41 = getelementptr inbounds i8, ptr %0, i64 20
  %42 = load <2 x float>, ptr %40, align 8
  store <2 x float> %42, ptr %41, align 4
  br label %.sink.split

.sink.split:                                      ; preds = %32, %39
  %.sink = phi i32 [ 1, %39 ], [ %., %32 ]
  store i32 %.sink, ptr %5, align 4
  br label %43

43:                                               ; preds = %.sink.split, %28
  %44 = getelementptr inbounds i8, ptr %1, i64 60
  %45 = load i32, ptr %44, align 4
  %46 = getelementptr inbounds i8, ptr %0, i64 68
  store i32 %45, ptr %46, align 4
  %47 = load <2 x i32>, ptr %1, align 8
  store <2 x i32> %47, ptr %0, align 4
  ret void
}